; ModuleID = '60/1006.c'
source_filename = "60/1006.c"
target datalayout = "e-m:e-p270:32:32-p271:32:32-p272:64:64-i64:64-f80:128-n8:16:32:64-S128"
target triple = "x86_64-pc-linux-gnu"

@.str = private unnamed_addr constant [3 x i8] c"%d\00", align 1
@.str.1 = private unnamed_addr constant [7 x i8] c"%d %d\0A\00", align 1
@.str.2 = private unnamed_addr constant [7 x i8] c"empty\0A\00", align 1

; Function Attrs: noinline nounwind uwtable
define dso_local i32 @main() #0 {
  %1 = alloca i32, align 4
  %2 = alloca [10000 x i32], align 16
  %3 = alloca i32, align 4
  %4 = alloca i32, align 4
  %5 = alloca i32, align 4
  %6 = alloca i32, align 4
  %7 = alloca i32, align 4
  %8 = alloca i32, align 4
  store i32 0, i32* %1, align 4
  store i32 0, i32* %6, align 4
  store i32 1, i32* %7, align 4
  %9 = call i32 (i8*, ...) @__isoc99_scanf(i8* getelementptr inbounds ([3 x i8], [3 x i8]* @.str, i64 0, i64 0), i32* %4)
  %10 = getelementptr inbounds [10000 x i32], [10000 x i32]* %2, i64 0, i64 0
  store i32 2, i32* %10, align 16
  store i32 3, i32* %5, align 4
  br label %11

11:                                               ; preds = %47, %0
  %12 = load i32, i32* %5, align 4
  %13 = load i32, i32* %4, align 4
  %14 = add nsw i32 %13, 1
  %15 = icmp slt i32 %12, %14
  br i1 %15, label %16, label %50

16:                                               ; preds = %11
  store i32 2, i32* %3, align 4
  br label %17

17:                                               ; preds = %31, %16
  %18 = load i32, i32* %3, align 4
  %19 = load i32, i32* %5, align 4
  %20 = icmp slt i32 %18, %19
  br i1 %20, label %21, label %34

21:                                               ; preds = %17
  %22 = load i32, i32* %5, align 4
  %23 = load i32, i32* %3, align 4
  %24 = srem i32 %22, %23
  %25 = icmp eq i32 %24, 0
  br i1 %25, label %26, label %27

26:                                               ; preds = %21
  br label %34

27:                                               ; preds = %21
  %28 = load i32, i32* %6, align 4
  %29 = add nsw i32 %28, 1
  store i32 %29, i32* %6, align 4
  br label %30

30:                                               ; preds = %27
  br label %31

31:                                               ; preds = %30
  %32 = load i32, i32* %3, align 4
  %33 = add nsw i32 %32, 1
  store i32 %33, i32* %3, align 4
  br label %17

34:                                               ; preds = %26, %17
  %35 = load i32, i32* %6, align 4
  %36 = load i32, i32* %5, align 4
  %37 = sub nsw i32 %36, 2
  %38 = icmp eq i32 %35, %37
  br i1 %38, label %39, label %46

39:                                               ; preds = %34
  %40 = load i32, i32* %5, align 4
  %41 = load i32, i32* %7, align 4
  %42 = sext i32 %41 to i64
  %43 = getelementptr inbounds [10000 x i32], [10000 x i32]* %2, i64 0, i64 %42
  store i32 %40, i32* %43, align 4
  %44 = load i32, i32* %7, align 4
  %45 = add nsw i32 %44, 1
  store i32 %45, i32* %7, align 4
  br label %46

46:                                               ; preds = %39, %34
  store i32 0, i32* %6, align 4
  br label %47

47:                                               ; preds = %46
  %48 = load i32, i32* %5, align 4
  %49 = add nsw i32 %48, 2
  store i32 %49, i32* %5, align 4
  br label %11

50:                                               ; preds = %11
  store i32 0, i32* %8, align 4
  store i32 0, i32* %3, align 4
  br label %51

51:                                               ; preds = %80, %50
  %52 = load i32, i32* %3, align 4
  %53 = load i32, i32* %7, align 4
  %54 = sub nsw i32 %53, 1
  %55 = icmp slt i32 %52, %54
  br i1 %55, label %56, label %83

56:                                               ; preds = %51
  %57 = load i32, i32* %3, align 4
  %58 = sext i32 %57 to i64
  %59 = getelementptr inbounds [10000 x i32], [10000 x i32]* %2, i64 0, i64 %58
  %60 = load i32, i32* %59, align 4
  %61 = add nsw i32 %60, 2
  %62 = load i32, i32* %3, align 4
  %63 = add nsw i32 %62, 1
  %64 = sext i32 %63 to i64
  %65 = getelementptr inbounds [10000 x i32], [10000 x i32]* %2, i64 0, i64 %64
  %66 = load i32, i32* %65, align 4
  %67 = icmp eq i32 %61, %66
  br i1 %67, label %68, label %79

68:                                               ; preds = %56
  %69 = load i32, i32* %3, align 4
  %70 = sext i32 %69 to i64
  %71 = getelementptr inbounds [10000 x i32], [10000 x i32]* %2, i64 0, i64 %70
  %72 = load i32, i32* %71, align 4
  %73 = load i32, i32* %3, align 4
  %74 = add nsw i32 %73, 1
  %75 = sext i32 %74 to i64
  %76 = getelementptr inbounds [10000 x i32], [10000 x i32]* %2, i64 0, i64 %75
  %77 = load i32, i32* %76, align 4
  %78 = call i32 (i8*, ...) @printf(i8* getelementptr inbounds ([7 x i8], [7 x i8]* @.str.1, i64 0, i64 0), i32 %72, i32 %77)
  store i32 1, i32* %8, align 4
  br label %79

79:                                               ; preds = %68, %56
  br label %80

80:                                               ; preds = %79
  %81 = load i32, i32* %3, align 4
  %82 = add nsw i32 %81, 1
  store i32 %82, i32* %3, align 4
  br label %51

83:                                               ; preds = %51
  %84 = load i32, i32* %8, align 4
  %85 = icmp eq i32 %84, 0
  br i1 %85, label %86, label %88

86:                                               ; preds = %83
  %87 = call i32 (i8*, ...) @printf(i8* getelementptr inbounds ([7 x i8], [7 x i8]* @.str.2, i64 0, i64 0))
  br label %88

88:                                               ; preds = %86, %83
  ret i32 0
}

declare dso_local i32 @__isoc99_scanf(i8*, ...) #1

declare dso_local i32 @printf(i8*, ...) #1


!llvm.module.flags = !{!0}
!llvm.ident = !{!1}

!0 = !{i32 1, !"wchar_size", i32 4}
!1 = !{!"clang version 10.0.0-4ubuntu1 "}
